GAS LISTING C:\Users\Jesper\AppData\Local\Temp\cccuXFk1.s 			page 1


   1              		.file	"gd32vf103_usb_it.c"
   2              		.option nopic
   3              		.attribute arch, "rv32i2p0_m2p0_a2p0_c2p0"
   4              		.attribute unaligned_access, 0
   5              		.attribute stack_align, 16
   6              		.text
   7              	.Ltext0:
   8              		.cfi_sections	.debug_frame
   9              		.section	.text.USBFS_IRQHandler,"ax",@progbits
  10              		.align	1
  11              		.globl	USBFS_IRQHandler
  13              	USBFS_IRQHandler:
  14              	.LFB6:
  15              		.file 1 "lib/usbcdc/src/gd32vf103_usb_it.c"
   1:lib/usbcdc/src/gd32vf103_usb_it.c **** /*!
   2:lib/usbcdc/src/gd32vf103_usb_it.c ****     \file  gd32vf103_it.c
   3:lib/usbcdc/src/gd32vf103_usb_it.c ****     \brief main interrupt service routines
   4:lib/usbcdc/src/gd32vf103_usb_it.c **** 
   5:lib/usbcdc/src/gd32vf103_usb_it.c ****     \version 2019-6-5, V1.0.0, demo for GD32VF103
   6:lib/usbcdc/src/gd32vf103_usb_it.c **** */
   7:lib/usbcdc/src/gd32vf103_usb_it.c **** 
   8:lib/usbcdc/src/gd32vf103_usb_it.c **** /*
   9:lib/usbcdc/src/gd32vf103_usb_it.c ****     Copyright (c) 2019, GigaDevice Semiconductor Inc.
  10:lib/usbcdc/src/gd32vf103_usb_it.c **** 
  11:lib/usbcdc/src/gd32vf103_usb_it.c ****     Redistribution and use in source and binary forms, with or without modification, 
  12:lib/usbcdc/src/gd32vf103_usb_it.c **** are permitted provided that the following conditions are met:
  13:lib/usbcdc/src/gd32vf103_usb_it.c **** 
  14:lib/usbcdc/src/gd32vf103_usb_it.c ****     1. Redistributions of source code must retain the above copyright notice, this 
  15:lib/usbcdc/src/gd32vf103_usb_it.c ****        list of conditions and the following disclaimer.
  16:lib/usbcdc/src/gd32vf103_usb_it.c ****     2. Redistributions in binary form must reproduce the above copyright notice, 
  17:lib/usbcdc/src/gd32vf103_usb_it.c ****        this list of conditions and the following disclaimer in the documentation 
  18:lib/usbcdc/src/gd32vf103_usb_it.c ****        and/or other materials provided with the distribution.
  19:lib/usbcdc/src/gd32vf103_usb_it.c ****     3. Neither the name of the copyright holder nor the names of its contributors 
  20:lib/usbcdc/src/gd32vf103_usb_it.c ****        may be used to endorse or promote products derived from this software without 
  21:lib/usbcdc/src/gd32vf103_usb_it.c ****        specific prior written permission.
  22:lib/usbcdc/src/gd32vf103_usb_it.c **** 
  23:lib/usbcdc/src/gd32vf103_usb_it.c ****     THIS SOFTWARE IS PROVIDED BY THE COPYRIGHT HOLDERS AND CONTRIBUTORS "AS IS" 
  24:lib/usbcdc/src/gd32vf103_usb_it.c **** AND ANY EXPRESS OR IMPLIED WARRANTIES, INCLUDING, BUT NOT LIMITED TO, THE IMPLIED 
  25:lib/usbcdc/src/gd32vf103_usb_it.c **** WARRANTIES OF MERCHANTABILITY AND FITNESS FOR A PARTICULAR PURPOSE ARE DISCLAIMED. 
  26:lib/usbcdc/src/gd32vf103_usb_it.c **** IN NO EVENT SHALL THE COPYRIGHT HOLDER OR CONTRIBUTORS BE LIABLE FOR ANY DIRECT, 
  27:lib/usbcdc/src/gd32vf103_usb_it.c **** INDIRECT, INCIDENTAL, SPECIAL, EXEMPLARY, OR CONSEQUENTIAL DAMAGES (INCLUDING, BUT 
  28:lib/usbcdc/src/gd32vf103_usb_it.c **** NOT LIMITED TO, PROCUREMENT OF SUBSTITUTE GOODS OR SERVICES; LOSS OF USE, DATA, OR 
  29:lib/usbcdc/src/gd32vf103_usb_it.c **** PROFITS; OR BUSINESS INTERRUPTION) HOWEVER CAUSED AND ON ANY THEORY OF LIABILITY, 
  30:lib/usbcdc/src/gd32vf103_usb_it.c **** WHETHER IN CONTRACT, STRICT LIABILITY, OR TORT (INCLUDING NEGLIGENCE OR OTHERWISE) 
  31:lib/usbcdc/src/gd32vf103_usb_it.c **** ARISING IN ANY WAY OUT OF THE USE OF THIS SOFTWARE, EVEN IF ADVISED OF THE POSSIBILITY 
  32:lib/usbcdc/src/gd32vf103_usb_it.c **** OF SUCH DAMAGE.
  33:lib/usbcdc/src/gd32vf103_usb_it.c **** */
  34:lib/usbcdc/src/gd32vf103_usb_it.c **** 
  35:lib/usbcdc/src/gd32vf103_usb_it.c **** #include "gd32vf103.h"
  36:lib/usbcdc/src/gd32vf103_usb_it.c **** #include "drv_usbd_int.h"
  37:lib/usbcdc/src/gd32vf103_usb_it.c **** #include "drv_usb_hw.h"
  38:lib/usbcdc/src/gd32vf103_usb_it.c **** #include "gd32vf103_usb_it.h"
  39:lib/usbcdc/src/gd32vf103_usb_it.c **** #include "usb_serial_if.h"
  40:lib/usbcdc/src/gd32vf103_usb_it.c **** 
  41:lib/usbcdc/src/gd32vf103_usb_it.c **** #define DEBUG_SP() asm volatile("csrrw sp, mscratch, sp")
  42:lib/usbcdc/src/gd32vf103_usb_it.c **** //#define DEBUG_PIN_ON() gpio_bit_set(GPIOB, GPIO_PIN_0)
  43:lib/usbcdc/src/gd32vf103_usb_it.c **** //#define DEBUG_PIN_OFF() gpio_bit_reset(GPIOB, GPIO_PIN_0)
GAS LISTING C:\Users\Jesper\AppData\Local\Temp\cccuXFk1.s 			page 2


  44:lib/usbcdc/src/gd32vf103_usb_it.c **** 
  45:lib/usbcdc/src/gd32vf103_usb_it.c **** extern usb_core_driver USB_OTG_dev;
  46:lib/usbcdc/src/gd32vf103_usb_it.c **** extern uint32_t usbfs_prescaler;
  47:lib/usbcdc/src/gd32vf103_usb_it.c **** 
  48:lib/usbcdc/src/gd32vf103_usb_it.c **** extern void usb_timer_irq(void);
  49:lib/usbcdc/src/gd32vf103_usb_it.c **** 
  50:lib/usbcdc/src/gd32vf103_usb_it.c **** /*!
  51:lib/usbcdc/src/gd32vf103_usb_it.c ****     \brief      this function handles USBD interrupt//
  52:lib/usbcdc/src/gd32vf103_usb_it.c ****     \param[in]  none
  53:lib/usbcdc/src/gd32vf103_usb_it.c ****     \param[out] none
  54:lib/usbcdc/src/gd32vf103_usb_it.c ****     \retval     none
  55:lib/usbcdc/src/gd32vf103_usb_it.c **** */
  56:lib/usbcdc/src/gd32vf103_usb_it.c **** void USBFS_IRQHandler (void)
  57:lib/usbcdc/src/gd32vf103_usb_it.c **** { 
  16              		.loc 1 57 1
  17              		.cfi_startproc
  58:lib/usbcdc/src/gd32vf103_usb_it.c ****     //DEBUG_PIN_ON();
  59:lib/usbcdc/src/gd32vf103_usb_it.c ****     usbd_isr (&USB_OTG_dev);
  18              		.loc 1 59 5
  19 0000 37050000 		lui	a0,%hi(USB_OTG_dev)
  20 0004 13050500 		addi	a0,a0,%lo(USB_OTG_dev)
  21 0008 17030000 		tail	usbd_isr
  21      67000300 
  22              	.LVL0:
  23              		.cfi_endproc
  24              	.LFE6:
  26              		.section	.text.USBFS_WKUP_IRQHandler,"ax",@progbits
  27              		.align	1
  28              		.globl	USBFS_WKUP_IRQHandler
  30              	USBFS_WKUP_IRQHandler:
  31              	.LFB7:
  60:lib/usbcdc/src/gd32vf103_usb_it.c **** }
  61:lib/usbcdc/src/gd32vf103_usb_it.c **** 
  62:lib/usbcdc/src/gd32vf103_usb_it.c **** 
  63:lib/usbcdc/src/gd32vf103_usb_it.c **** 
  64:lib/usbcdc/src/gd32vf103_usb_it.c **** /*!
  65:lib/usbcdc/src/gd32vf103_usb_it.c ****     \brief      this function handles USBD wakeup interrupt request.
  66:lib/usbcdc/src/gd32vf103_usb_it.c ****     \param[in]  none
  67:lib/usbcdc/src/gd32vf103_usb_it.c ****     \param[out] none
  68:lib/usbcdc/src/gd32vf103_usb_it.c ****     \retval     none
  69:lib/usbcdc/src/gd32vf103_usb_it.c **** */
  70:lib/usbcdc/src/gd32vf103_usb_it.c **** void USBFS_WKUP_IRQHandler(void)
  71:lib/usbcdc/src/gd32vf103_usb_it.c **** {
  32              		.loc 1 71 1
  33              		.cfi_startproc
  72:lib/usbcdc/src/gd32vf103_usb_it.c ****     //DEBUG_PIN_ON();
  73:lib/usbcdc/src/gd32vf103_usb_it.c ****     if (USB_OTG_dev.bp.low_power) {
  34              		.loc 1 73 5
  71:lib/usbcdc/src/gd32vf103_usb_it.c ****     //DEBUG_PIN_ON();
  35              		.loc 1 71 1 is_stmt 0
  36 0000 4111     		addi	sp,sp,-16
  37              	.LCFI0:
  38              		.cfi_def_cfa_offset 16
  39 0002 22C4     		sw	s0,8(sp)
  40              		.cfi_offset 8, -8
  41              		.loc 1 73 23
  42 0004 37040000 		lui	s0,%hi(USB_OTG_dev)
GAS LISTING C:\Users\Jesper\AppData\Local\Temp\cccuXFk1.s 			page 3


  71:lib/usbcdc/src/gd32vf103_usb_it.c ****     //DEBUG_PIN_ON();
  43              		.loc 1 71 1
  44 0008 06C6     		sw	ra,12(sp)
  45              		.cfi_offset 1, -4
  46              		.loc 1 73 23
  47 000a 93070400 		addi	a5,s0,%lo(USB_OTG_dev)
  48              		.loc 1 73 8
  49 000e 83C77700 		lbu	a5,7(a5)
  50 0012 8DCB     		beq	a5,zero,.L3
  74:lib/usbcdc/src/gd32vf103_usb_it.c ****         //SystemInit();
  75:lib/usbcdc/src/gd32vf103_usb_it.c ****         set_usb_clock_96m_hxtal();
  51              		.loc 1 75 9 is_stmt 1
  52 0014 97000000 		call	set_usb_clock_96m_hxtal
  52      E7800000 
  53              	.LVL1:
  76:lib/usbcdc/src/gd32vf103_usb_it.c ****         rcu_usb_clock_config(usbfs_prescaler);
  54              		.loc 1 76 9
  55 001c B7070000 		lui	a5,%hi(usbfs_prescaler)
  56 0020 03A50700 		lw	a0,%lo(usbfs_prescaler)(a5)
  57 0024 97000000 		call	rcu_usb_clock_config
  57      E7800000 
  58              	.LVL2:
  77:lib/usbcdc/src/gd32vf103_usb_it.c **** 
  78:lib/usbcdc/src/gd32vf103_usb_it.c ****         rcu_periph_clock_enable(RCU_USBFS);
  59              		.loc 1 78 9
  60 002c 1305C050 		li	a0,1292
  61 0030 97000000 		call	rcu_periph_clock_enable
  61      E7800000 
  62              	.LVL3:
  79:lib/usbcdc/src/gd32vf103_usb_it.c **** 
  80:lib/usbcdc/src/gd32vf103_usb_it.c ****         usb_clock_active(&USB_OTG_dev);
  63              		.loc 1 80 9
  64 0038 13050400 		addi	a0,s0,%lo(USB_OTG_dev)
  65 003c 97000000 		call	usb_clock_active
  65      E7800000 
  66              	.LVL4:
  67              	.L3:
  81:lib/usbcdc/src/gd32vf103_usb_it.c ****     }
  82:lib/usbcdc/src/gd32vf103_usb_it.c **** 
  83:lib/usbcdc/src/gd32vf103_usb_it.c ****     exti_interrupt_flag_clear(EXTI_18);
  68              		.loc 1 83 5
  84:lib/usbcdc/src/gd32vf103_usb_it.c **** }
  69              		.loc 1 84 1 is_stmt 0
  70 0044 2244     		lw	s0,8(sp)
  71              		.cfi_restore 8
  72 0046 B240     		lw	ra,12(sp)
  73              		.cfi_restore 1
  83:lib/usbcdc/src/gd32vf103_usb_it.c **** }
  74              		.loc 1 83 5
  75 0048 37050400 		li	a0,262144
  76              		.loc 1 84 1
  77 004c 4101     		addi	sp,sp,16
  78              	.LCFI1:
  79              		.cfi_def_cfa_offset 0
  83:lib/usbcdc/src/gd32vf103_usb_it.c **** }
  80              		.loc 1 83 5
  81 004e 17030000 		tail	exti_interrupt_flag_clear
GAS LISTING C:\Users\Jesper\AppData\Local\Temp\cccuXFk1.s 			page 4


  81      67000300 
  82              	.LVL5:
  83              		.cfi_endproc
  84              	.LFE7:
  86              		.text
  87              	.Letext0:
  88              		.file 2 "c:\\users\\jesper\\documents\\ml_sommarjobb\\toolchain-gd32v-v201-win\\toolchain-gd32v-v2
  89              		.file 3 "c:\\users\\jesper\\documents\\ml_sommarjobb\\toolchain-gd32v-v201-win\\toolchain-gd32v-v2
  90              		.file 4 "./../../firmware/GD32VF103_standard_peripheral/Include/gd32vf103_exti.h"
  91              		.file 5 "./../../firmware/GD32VF103_standard_peripheral/Include/gd32vf103_rcu.h"
  92              		.file 6 "lib/usbcdc/include/drv_usb_regs.h"
  93              		.file 7 "./../../firmware/GD32VF103_standard_peripheral/system_gd32vf103.h"
  94              		.file 8 "lib/usbcdc/include/usb_ch9_std.h"
  95              		.file 9 "lib/usbcdc/include/drv_usb_core.h"
  96              		.file 10 "lib/usbcdc/include/drv_usb_dev.h"
  97              		.file 11 "c:\\users\\jesper\\documents\\ml_sommarjobb\\toolchain-gd32v-v201-win\\toolchain-gd32v-v
  98              		.file 12 "c:\\users\\jesper\\documents\\ml_sommarjobb\\toolchain-gd32v-v201-win\\toolchain-gd32v-v
  99              		.file 13 "c:\\users\\jesper\\documents\\ml_sommarjobb\\toolchain-gd32v-v201-win\\toolchain-gd32v-v
 100              		.file 14 "c:\\users\\jesper\\documents\\ml_sommarjobb\\toolchain-gd32v-v201-win\\toolchain-gd32v-v
 101              		.file 15 "lib/usbcdc/include/cdc_acm_core.h"
 102              		.file 16 "c:\\users\\jesper\\documents\\ml_sommarjobb\\toolchain-gd32v-v201-win\\toolchain-gd32v-v
 103              		.file 17 "lib/usbcdc/include/usb_serial_if.h"
 104              		.file 18 "lib/usbcdc/include/drv_usbd_int.h"
GAS LISTING C:\Users\Jesper\AppData\Local\Temp\cccuXFk1.s 			page 5


DEFINED SYMBOLS
                            *ABS*:0000000000000000 gd32vf103_usb_it.c
C:\Users\Jesper\AppData\Local\Temp\cccuXFk1.s:13     .text.USBFS_IRQHandler:0000000000000000 USBFS_IRQHandler
C:\Users\Jesper\AppData\Local\Temp\cccuXFk1.s:17     .text.USBFS_IRQHandler:0000000000000000 .L0 
C:\Users\Jesper\AppData\Local\Temp\cccuXFk1.s:18     .text.USBFS_IRQHandler:0000000000000000 .L0 
C:\Users\Jesper\AppData\Local\Temp\cccuXFk1.s:19     .text.USBFS_IRQHandler:0000000000000000 .L0 
C:\Users\Jesper\AppData\Local\Temp\cccuXFk1.s:23     .text.USBFS_IRQHandler:0000000000000010 .L0 
C:\Users\Jesper\AppData\Local\Temp\cccuXFk1.s:30     .text.USBFS_WKUP_IRQHandler:0000000000000000 USBFS_WKUP_IRQHandler
C:\Users\Jesper\AppData\Local\Temp\cccuXFk1.s:33     .text.USBFS_WKUP_IRQHandler:0000000000000000 .L0 
C:\Users\Jesper\AppData\Local\Temp\cccuXFk1.s:34     .text.USBFS_WKUP_IRQHandler:0000000000000000 .L0 
C:\Users\Jesper\AppData\Local\Temp\cccuXFk1.s:35     .text.USBFS_WKUP_IRQHandler:0000000000000000 .L0 
C:\Users\Jesper\AppData\Local\Temp\cccuXFk1.s:36     .text.USBFS_WKUP_IRQHandler:0000000000000000 .L0 
C:\Users\Jesper\AppData\Local\Temp\cccuXFk1.s:38     .text.USBFS_WKUP_IRQHandler:0000000000000002 .L0 
C:\Users\Jesper\AppData\Local\Temp\cccuXFk1.s:40     .text.USBFS_WKUP_IRQHandler:0000000000000004 .L0 
C:\Users\Jesper\AppData\Local\Temp\cccuXFk1.s:42     .text.USBFS_WKUP_IRQHandler:0000000000000004 .L0 
C:\Users\Jesper\AppData\Local\Temp\cccuXFk1.s:44     .text.USBFS_WKUP_IRQHandler:0000000000000008 .L0 
C:\Users\Jesper\AppData\Local\Temp\cccuXFk1.s:45     .text.USBFS_WKUP_IRQHandler:000000000000000a .L0 
C:\Users\Jesper\AppData\Local\Temp\cccuXFk1.s:47     .text.USBFS_WKUP_IRQHandler:000000000000000a .L0 
C:\Users\Jesper\AppData\Local\Temp\cccuXFk1.s:49     .text.USBFS_WKUP_IRQHandler:000000000000000e .L0 
C:\Users\Jesper\AppData\Local\Temp\cccuXFk1.s:52     .text.USBFS_WKUP_IRQHandler:0000000000000014 .L0 
C:\Users\Jesper\AppData\Local\Temp\cccuXFk1.s:55     .text.USBFS_WKUP_IRQHandler:000000000000001c .L0 
C:\Users\Jesper\AppData\Local\Temp\cccuXFk1.s:60     .text.USBFS_WKUP_IRQHandler:000000000000002c .L0 
C:\Users\Jesper\AppData\Local\Temp\cccuXFk1.s:64     .text.USBFS_WKUP_IRQHandler:0000000000000038 .L0 
C:\Users\Jesper\AppData\Local\Temp\cccuXFk1.s:69     .text.USBFS_WKUP_IRQHandler:0000000000000044 .L0 
C:\Users\Jesper\AppData\Local\Temp\cccuXFk1.s:70     .text.USBFS_WKUP_IRQHandler:0000000000000044 .L0 
C:\Users\Jesper\AppData\Local\Temp\cccuXFk1.s:71     .text.USBFS_WKUP_IRQHandler:0000000000000046 .L0 
C:\Users\Jesper\AppData\Local\Temp\cccuXFk1.s:73     .text.USBFS_WKUP_IRQHandler:0000000000000048 .L0 
C:\Users\Jesper\AppData\Local\Temp\cccuXFk1.s:75     .text.USBFS_WKUP_IRQHandler:0000000000000048 .L0 
C:\Users\Jesper\AppData\Local\Temp\cccuXFk1.s:77     .text.USBFS_WKUP_IRQHandler:000000000000004c .L0 
C:\Users\Jesper\AppData\Local\Temp\cccuXFk1.s:79     .text.USBFS_WKUP_IRQHandler:000000000000004e .L0 
C:\Users\Jesper\AppData\Local\Temp\cccuXFk1.s:81     .text.USBFS_WKUP_IRQHandler:000000000000004e .L0 
C:\Users\Jesper\AppData\Local\Temp\cccuXFk1.s:83     .text.USBFS_WKUP_IRQHandler:0000000000000056 .L0 
C:\Users\Jesper\AppData\Local\Temp\cccuXFk1.s:26     .text.USBFS_IRQHandler:0000000000000010 .L0 
C:\Users\Jesper\AppData\Local\Temp\cccuXFk1.s:86     .text.USBFS_WKUP_IRQHandler:0000000000000056 .L0 
                     .debug_frame:0000000000000000 .L0 
C:\Users\Jesper\AppData\Local\Temp\cccuXFk1.s:67     .text.USBFS_WKUP_IRQHandler:0000000000000044 .L3
C:\Users\Jesper\AppData\Local\Temp\cccuXFk1.s:4195   .debug_abbrev:0000000000000000 .Ldebug_abbrev0
C:\Users\Jesper\AppData\Local\Temp\cccuXFk1.s:5006   .debug_str:0000000000000263 .LASF404
C:\Users\Jesper\AppData\Local\Temp\cccuXFk1.s:5348   .debug_str:0000000000000a39 .LASF405
C:\Users\Jesper\AppData\Local\Temp\cccuXFk1.s:5384   .debug_str:0000000000000b2c .LASF406
C:\Users\Jesper\AppData\Local\Temp\cccuXFk1.s:4894   .debug_ranges:0000000000000000 .Ldebug_ranges0
C:\Users\Jesper\AppData\Local\Temp\cccuXFk1.s:4902   .debug_line:0000000000000000 .Ldebug_line0
C:\Users\Jesper\AppData\Local\Temp\cccuXFk1.s:5368   .debug_str:0000000000000ac1 .LASF0
C:\Users\Jesper\AppData\Local\Temp\cccuXFk1.s:5096   .debug_str:00000000000004d9 .LASF1
C:\Users\Jesper\AppData\Local\Temp\cccuXFk1.s:5026   .debug_str:000000000000034f .LASF4
C:\Users\Jesper\AppData\Local\Temp\cccuXFk1.s:5112   .debug_str:0000000000000551 .LASF2
C:\Users\Jesper\AppData\Local\Temp\cccuXFk1.s:5578   .debug_str:0000000000000f8e .LASF3
C:\Users\Jesper\AppData\Local\Temp\cccuXFk1.s:5168   .debug_str:000000000000067b .LASF5
C:\Users\Jesper\AppData\Local\Temp\cccuXFk1.s:5678   .debug_str:0000000000001191 .LASF6
C:\Users\Jesper\AppData\Local\Temp\cccuXFk1.s:5048   .debug_str:00000000000003bf .LASF7
C:\Users\Jesper\AppData\Local\Temp\cccuXFk1.s:5302   .debug_str:0000000000000935 .LASF8
C:\Users\Jesper\AppData\Local\Temp\cccuXFk1.s:5244   .debug_str:00000000000007ef .LASF9
C:\Users\Jesper\AppData\Local\Temp\cccuXFk1.s:5310   .debug_str:000000000000095d .LASF10
C:\Users\Jesper\AppData\Local\Temp\cccuXFk1.s:5474   .debug_str:0000000000000d9d .LASF11
C:\Users\Jesper\AppData\Local\Temp\cccuXFk1.s:5098   .debug_str:00000000000004e5 .LASF12
C:\Users\Jesper\AppData\Local\Temp\cccuXFk1.s:5482   .debug_str:0000000000000dd1 .LASF13
C:\Users\Jesper\AppData\Local\Temp\cccuXFk1.s:5634   .debug_str:00000000000010cf .LASF14
GAS LISTING C:\Users\Jesper\AppData\Local\Temp\cccuXFk1.s 			page 6


C:\Users\Jesper\AppData\Local\Temp\cccuXFk1.s:5258   .debug_str:0000000000000850 .LASF143
C:\Users\Jesper\AppData\Local\Temp\cccuXFk1.s:5650   .debug_str:000000000000112d .LASF15
C:\Users\Jesper\AppData\Local\Temp\cccuXFk1.s:5652   .debug_str:0000000000001134 .LASF16
C:\Users\Jesper\AppData\Local\Temp\cccuXFk1.s:5654   .debug_str:000000000000113b .LASF17
C:\Users\Jesper\AppData\Local\Temp\cccuXFk1.s:5656   .debug_str:0000000000001142 .LASF18
C:\Users\Jesper\AppData\Local\Temp\cccuXFk1.s:5658   .debug_str:0000000000001149 .LASF19
C:\Users\Jesper\AppData\Local\Temp\cccuXFk1.s:5660   .debug_str:0000000000001150 .LASF20
C:\Users\Jesper\AppData\Local\Temp\cccuXFk1.s:5662   .debug_str:0000000000001157 .LASF21
C:\Users\Jesper\AppData\Local\Temp\cccuXFk1.s:5664   .debug_str:000000000000115e .LASF22
C:\Users\Jesper\AppData\Local\Temp\cccuXFk1.s:5666   .debug_str:0000000000001165 .LASF23
C:\Users\Jesper\AppData\Local\Temp\cccuXFk1.s:5668   .debug_str:000000000000116c .LASF24
C:\Users\Jesper\AppData\Local\Temp\cccuXFk1.s:5208   .debug_str:0000000000000742 .LASF25
C:\Users\Jesper\AppData\Local\Temp\cccuXFk1.s:5210   .debug_str:000000000000074a .LASF26
C:\Users\Jesper\AppData\Local\Temp\cccuXFk1.s:5212   .debug_str:0000000000000752 .LASF27
C:\Users\Jesper\AppData\Local\Temp\cccuXFk1.s:5214   .debug_str:000000000000075a .LASF28
C:\Users\Jesper\AppData\Local\Temp\cccuXFk1.s:5216   .debug_str:0000000000000762 .LASF29
C:\Users\Jesper\AppData\Local\Temp\cccuXFk1.s:5218   .debug_str:000000000000076a .LASF30
C:\Users\Jesper\AppData\Local\Temp\cccuXFk1.s:5220   .debug_str:0000000000000772 .LASF31
C:\Users\Jesper\AppData\Local\Temp\cccuXFk1.s:5222   .debug_str:000000000000077a .LASF32
C:\Users\Jesper\AppData\Local\Temp\cccuXFk1.s:5224   .debug_str:0000000000000782 .LASF33
C:\Users\Jesper\AppData\Local\Temp\cccuXFk1.s:5534   .debug_str:0000000000000ec8 .LASF34
C:\Users\Jesper\AppData\Local\Temp\cccuXFk1.s:5536   .debug_str:0000000000000ed1 .LASF35
C:\Users\Jesper\AppData\Local\Temp\cccuXFk1.s:5370   .debug_str:0000000000000ace .LASF36
C:\Users\Jesper\AppData\Local\Temp\cccuXFk1.s:5620   .debug_str:0000000000001066 .LASF37
C:\Users\Jesper\AppData\Local\Temp\cccuXFk1.s:5290   .debug_str:00000000000008fb .LASF38
C:\Users\Jesper\AppData\Local\Temp\cccuXFk1.s:4972   .debug_str:0000000000000196 .LASF39
C:\Users\Jesper\AppData\Local\Temp\cccuXFk1.s:4974   .debug_str:00000000000001a1 .LASF40
C:\Users\Jesper\AppData\Local\Temp\cccuXFk1.s:4976   .debug_str:00000000000001ac .LASF41
C:\Users\Jesper\AppData\Local\Temp\cccuXFk1.s:4978   .debug_str:00000000000001b7 .LASF42
C:\Users\Jesper\AppData\Local\Temp\cccuXFk1.s:4980   .debug_str:00000000000001c2 .LASF43
C:\Users\Jesper\AppData\Local\Temp\cccuXFk1.s:4982   .debug_str:00000000000001cd .LASF44
C:\Users\Jesper\AppData\Local\Temp\cccuXFk1.s:5416   .debug_str:0000000000000c35 .LASF45
C:\Users\Jesper\AppData\Local\Temp\cccuXFk1.s:5088   .debug_str:00000000000004b3 .LASF46
C:\Users\Jesper\AppData\Local\Temp\cccuXFk1.s:5090   .debug_str:00000000000004bc .LASF47
C:\Users\Jesper\AppData\Local\Temp\cccuXFk1.s:4992   .debug_str:0000000000000226 .LASF48
C:\Users\Jesper\AppData\Local\Temp\cccuXFk1.s:4994   .debug_str:0000000000000231 .LASF49
C:\Users\Jesper\AppData\Local\Temp\cccuXFk1.s:4952   .debug_str:000000000000012b .LASF50
C:\Users\Jesper\AppData\Local\Temp\cccuXFk1.s:4954   .debug_str:0000000000000135 .LASF51
C:\Users\Jesper\AppData\Local\Temp\cccuXFk1.s:5638   .debug_str:00000000000010ea .LASF52
C:\Users\Jesper\AppData\Local\Temp\cccuXFk1.s:5640   .debug_str:00000000000010f3 .LASF53
C:\Users\Jesper\AppData\Local\Temp\cccuXFk1.s:5146   .debug_str:00000000000005fb .LASF54
C:\Users\Jesper\AppData\Local\Temp\cccuXFk1.s:5148   .debug_str:0000000000000604 .LASF55
C:\Users\Jesper\AppData\Local\Temp\cccuXFk1.s:5594   .debug_str:0000000000000fdd .LASF56
C:\Users\Jesper\AppData\Local\Temp\cccuXFk1.s:4936   .debug_str:00000000000000d7 .LASF57
C:\Users\Jesper\AppData\Local\Temp\cccuXFk1.s:5100   .debug_str:00000000000004ed .LASF58
C:\Users\Jesper\AppData\Local\Temp\cccuXFk1.s:5442   .debug_str:0000000000000cf7 .LASF59
C:\Users\Jesper\AppData\Local\Temp\cccuXFk1.s:5266   .debug_str:0000000000000881 .LASF60
C:\Users\Jesper\AppData\Local\Temp\cccuXFk1.s:5314   .debug_str:0000000000000974 .LASF61
C:\Users\Jesper\AppData\Local\Temp\cccuXFk1.s:5316   .debug_str:000000000000097e .LASF62
C:\Users\Jesper\AppData\Local\Temp\cccuXFk1.s:5318   .debug_str:0000000000000988 .LASF63
C:\Users\Jesper\AppData\Local\Temp\cccuXFk1.s:5320   .debug_str:0000000000000992 .LASF64
C:\Users\Jesper\AppData\Local\Temp\cccuXFk1.s:5322   .debug_str:000000000000099c .LASF65
C:\Users\Jesper\AppData\Local\Temp\cccuXFk1.s:5306   .debug_str:000000000000094b .LASF66
C:\Users\Jesper\AppData\Local\Temp\cccuXFk1.s:5308   .debug_str:0000000000000954 .LASF67
C:\Users\Jesper\AppData\Local\Temp\cccuXFk1.s:4970   .debug_str:000000000000018b .LASF68
C:\Users\Jesper\AppData\Local\Temp\cccuXFk1.s:5086   .debug_str:00000000000004aa .LASF69
C:\Users\Jesper\AppData\Local\Temp\cccuXFk1.s:4990   .debug_str:000000000000021b .LASF70
GAS LISTING C:\Users\Jesper\AppData\Local\Temp\cccuXFk1.s 			page 7


C:\Users\Jesper\AppData\Local\Temp\cccuXFk1.s:5436   .debug_str:0000000000000cd4 .LASF71
C:\Users\Jesper\AppData\Local\Temp\cccuXFk1.s:5120   .debug_str:0000000000000580 .LASF72
C:\Users\Jesper\AppData\Local\Temp\cccuXFk1.s:5312   .debug_str:000000000000096b .LASF73
C:\Users\Jesper\AppData\Local\Temp\cccuXFk1.s:5184   .debug_str:00000000000006d4 .LASF74
C:\Users\Jesper\AppData\Local\Temp\cccuXFk1.s:5562   .debug_str:0000000000000f3e .LASF75
C:\Users\Jesper\AppData\Local\Temp\cccuXFk1.s:5194   .debug_str:0000000000000701 .LASF76
C:\Users\Jesper\AppData\Local\Temp\cccuXFk1.s:5690   .debug_str:00000000000011e1 .LASF77
C:\Users\Jesper\AppData\Local\Temp\cccuXFk1.s:5580   .debug_str:0000000000000f98 .LASF78
C:\Users\Jesper\AppData\Local\Temp\cccuXFk1.s:5700   .debug_str:0000000000001223 .LASF79
C:\Users\Jesper\AppData\Local\Temp\cccuXFk1.s:5698   .debug_str:000000000000121b .LASF80
C:\Users\Jesper\AppData\Local\Temp\cccuXFk1.s:5552   .debug_str:0000000000000f12 .LASF81
C:\Users\Jesper\AppData\Local\Temp\cccuXFk1.s:5696   .debug_str:0000000000001207 .LASF82
C:\Users\Jesper\AppData\Local\Temp\cccuXFk1.s:4938   .debug_str:00000000000000df .LASF83
C:\Users\Jesper\AppData\Local\Temp\cccuXFk1.s:5188   .debug_str:00000000000006e4 .LASF84
C:\Users\Jesper\AppData\Local\Temp\cccuXFk1.s:5132   .debug_str:00000000000005b1 .LASF85
C:\Users\Jesper\AppData\Local\Temp\cccuXFk1.s:5028   .debug_str:0000000000000359 .LASF86
C:\Users\Jesper\AppData\Local\Temp\cccuXFk1.s:5694   .debug_str:00000000000011ff .LASF87
C:\Users\Jesper\AppData\Local\Temp\cccuXFk1.s:5016   .debug_str:0000000000000312 .LASF88
C:\Users\Jesper\AppData\Local\Temp\cccuXFk1.s:5686   .debug_str:00000000000011c9 .LASF89
C:\Users\Jesper\AppData\Local\Temp\cccuXFk1.s:5498   .debug_str:0000000000000e13 .LASF90
C:\Users\Jesper\AppData\Local\Temp\cccuXFk1.s:5092   .debug_str:00000000000004c5 .LASF91
C:\Users\Jesper\AppData\Local\Temp\cccuXFk1.s:5446   .debug_str:0000000000000d08 .LASF92
C:\Users\Jesper\AppData\Local\Temp\cccuXFk1.s:5642   .debug_str:00000000000010fc .LASF93
C:\Users\Jesper\AppData\Local\Temp\cccuXFk1.s:5544   .debug_str:0000000000000eec .LASF94
C:\Users\Jesper\AppData\Local\Temp\cccuXFk1.s:5684   .debug_str:00000000000011bf .LASF95
C:\Users\Jesper\AppData\Local\Temp\cccuXFk1.s:5708   .debug_str:0000000000001256 .LASF96
C:\Users\Jesper\AppData\Local\Temp\cccuXFk1.s:5238   .debug_str:00000000000007d7 .LASF97
C:\Users\Jesper\AppData\Local\Temp\cccuXFk1.s:5182   .debug_str:00000000000006cb .LASF98
C:\Users\Jesper\AppData\Local\Temp\cccuXFk1.s:5674   .debug_str:000000000000117f .LASF99
C:\Users\Jesper\AppData\Local\Temp\cccuXFk1.s:5556   .debug_str:0000000000000f23 .LASF100
C:\Users\Jesper\AppData\Local\Temp\cccuXFk1.s:5496   .debug_str:0000000000000e0c .LASF101
C:\Users\Jesper\AppData\Local\Temp\cccuXFk1.s:5070   .debug_str:0000000000000444 .LASF102
C:\Users\Jesper\AppData\Local\Temp\cccuXFk1.s:5386   .debug_str:0000000000000b9f .LASF103
C:\Users\Jesper\AppData\Local\Temp\cccuXFk1.s:5122   .debug_str:0000000000000587 .LASF104
C:\Users\Jesper\AppData\Local\Temp\cccuXFk1.s:5126   .debug_str:0000000000000595 .LASF105
C:\Users\Jesper\AppData\Local\Temp\cccuXFk1.s:5486   .debug_str:0000000000000de6 .LASF106
C:\Users\Jesper\AppData\Local\Temp\cccuXFk1.s:4984   .debug_str:00000000000001d8 .LASF107
C:\Users\Jesper\AppData\Local\Temp\cccuXFk1.s:5144   .debug_str:00000000000005f0 .LASF108
C:\Users\Jesper\AppData\Local\Temp\cccuXFk1.s:5286   .debug_str:00000000000008e9 .LASF109
C:\Users\Jesper\AppData\Local\Temp\cccuXFk1.s:5166   .debug_str:0000000000000671 .LASF110
C:\Users\Jesper\AppData\Local\Temp\cccuXFk1.s:5710   .debug_str:000000000000125d .LASF111
C:\Users\Jesper\AppData\Local\Temp\cccuXFk1.s:4958   .debug_str:0000000000000159 .LASF112
C:\Users\Jesper\AppData\Local\Temp\cccuXFk1.s:5176   .debug_str:00000000000006ae .LASF113
C:\Users\Jesper\AppData\Local\Temp\cccuXFk1.s:5178   .debug_str:00000000000006b9 .LASF114
C:\Users\Jesper\AppData\Local\Temp\cccuXFk1.s:5596   .debug_str:0000000000000fe6 .LASF115
C:\Users\Jesper\AppData\Local\Temp\cccuXFk1.s:5130   .debug_str:00000000000005a9 .LASF116
C:\Users\Jesper\AppData\Local\Temp\cccuXFk1.s:5042   .debug_str:000000000000039f .LASF117
C:\Users\Jesper\AppData\Local\Temp\cccuXFk1.s:4926   .debug_str:0000000000000090 .LASF118
C:\Users\Jesper\AppData\Local\Temp\cccuXFk1.s:5494   .debug_str:0000000000000e04 .LASF119
C:\Users\Jesper\AppData\Local\Temp\cccuXFk1.s:5044   .debug_str:00000000000003a7 .LASF120
C:\Users\Jesper\AppData\Local\Temp\cccuXFk1.s:5450   .debug_str:0000000000000d1a .LASF121
C:\Users\Jesper\AppData\Local\Temp\cccuXFk1.s:5226   .debug_str:000000000000078a .LASF122
C:\Users\Jesper\AppData\Local\Temp\cccuXFk1.s:5716   .debug_str:000000000000127b .LASF123
C:\Users\Jesper\AppData\Local\Temp\cccuXFk1.s:5590   .debug_str:0000000000000fcc .LASF124
C:\Users\Jesper\AppData\Local\Temp\cccuXFk1.s:5598   .debug_str:0000000000000fee .LASF125
C:\Users\Jesper\AppData\Local\Temp\cccuXFk1.s:5140   .debug_str:00000000000005de .LASF126
C:\Users\Jesper\AppData\Local\Temp\cccuXFk1.s:4950   .debug_str:0000000000000122 .LASF127
GAS LISTING C:\Users\Jesper\AppData\Local\Temp\cccuXFk1.s 			page 8


C:\Users\Jesper\AppData\Local\Temp\cccuXFk1.s:5074   .debug_str:0000000000000458 .LASF128
C:\Users\Jesper\AppData\Local\Temp\cccuXFk1.s:5116   .debug_str:000000000000056d .LASF129
C:\Users\Jesper\AppData\Local\Temp\cccuXFk1.s:5426   .debug_str:0000000000000c8e .LASF130
C:\Users\Jesper\AppData\Local\Temp\cccuXFk1.s:5280   .debug_str:00000000000008cd .LASF131
C:\Users\Jesper\AppData\Local\Temp\cccuXFk1.s:5082   .debug_str:000000000000048f .LASF132
C:\Users\Jesper\AppData\Local\Temp\cccuXFk1.s:5186   .debug_str:00000000000006db .LASF133
C:\Users\Jesper\AppData\Local\Temp\cccuXFk1.s:5344   .debug_str:0000000000000a25 .LASF134
C:\Users\Jesper\AppData\Local\Temp\cccuXFk1.s:5582   .debug_str:0000000000000f9f .LASF135
C:\Users\Jesper\AppData\Local\Temp\cccuXFk1.s:5060   .debug_str:00000000000003f4 .LASF136
C:\Users\Jesper\AppData\Local\Temp\cccuXFk1.s:5190   .debug_str:00000000000006ef .LASF145
C:\Users\Jesper\AppData\Local\Temp\cccuXFk1.s:5052   .debug_str:00000000000003d4 .LASF137
C:\Users\Jesper\AppData\Local\Temp\cccuXFk1.s:5564   .debug_str:0000000000000f45 .LASF138
C:\Users\Jesper\AppData\Local\Temp\cccuXFk1.s:5558   .debug_str:0000000000000f2c .LASF139
C:\Users\Jesper\AppData\Local\Temp\cccuXFk1.s:5270   .debug_str:000000000000089a .LASF140
C:\Users\Jesper\AppData\Local\Temp\cccuXFk1.s:5018   .debug_str:000000000000031c .LASF141
C:\Users\Jesper\AppData\Local\Temp\cccuXFk1.s:5454   .debug_str:0000000000000d2b .LASF142
C:\Users\Jesper\AppData\Local\Temp\cccuXFk1.s:5554   .debug_str:0000000000000f19 .LASF144
C:\Users\Jesper\AppData\Local\Temp\cccuXFk1.s:5198   .debug_str:000000000000070e .LASF146
C:\Users\Jesper\AppData\Local\Temp\cccuXFk1.s:5114   .debug_str:000000000000055f .LASF147
C:\Users\Jesper\AppData\Local\Temp\cccuXFk1.s:5408   .debug_str:0000000000000c13 .LASF148
C:\Users\Jesper\AppData\Local\Temp\cccuXFk1.s:5124   .debug_str:000000000000058e .LASF149
C:\Users\Jesper\AppData\Local\Temp\cccuXFk1.s:5478   .debug_str:0000000000000dc2 .LASF150
C:\Users\Jesper\AppData\Local\Temp\cccuXFk1.s:5200   .debug_str:0000000000000717 .LASF151
C:\Users\Jesper\AppData\Local\Temp\cccuXFk1.s:5292   .debug_str:0000000000000905 .LASF152
C:\Users\Jesper\AppData\Local\Temp\cccuXFk1.s:5418   .debug_str:0000000000000c3f .LASF153
C:\Users\Jesper\AppData\Local\Temp\cccuXFk1.s:5472   .debug_str:0000000000000d95 .LASF154
C:\Users\Jesper\AppData\Local\Temp\cccuXFk1.s:5234   .debug_str:00000000000007b8 .LASF155
C:\Users\Jesper\AppData\Local\Temp\cccuXFk1.s:5174   .debug_str:000000000000069e .LASF156
C:\Users\Jesper\AppData\Local\Temp\cccuXFk1.s:5500   .debug_str:0000000000000e18 .LASF157
C:\Users\Jesper\AppData\Local\Temp\cccuXFk1.s:5142   .debug_str:00000000000005e9 .LASF158
C:\Users\Jesper\AppData\Local\Temp\cccuXFk1.s:5014   .debug_str:000000000000030b .LASF159
C:\Users\Jesper\AppData\Local\Temp\cccuXFk1.s:5560   .debug_str:0000000000000f31 .LASF160
C:\Users\Jesper\AppData\Local\Temp\cccuXFk1.s:4944   .debug_str:00000000000000fd .LASF161
C:\Users\Jesper\AppData\Local\Temp\cccuXFk1.s:5040   .debug_str:000000000000038f .LASF162
C:\Users\Jesper\AppData\Local\Temp\cccuXFk1.s:5248   .debug_str:0000000000000817 .LASF163
C:\Users\Jesper\AppData\Local\Temp\cccuXFk1.s:5510   .debug_str:0000000000000e56 .LASF164
C:\Users\Jesper\AppData\Local\Temp\cccuXFk1.s:5502   .debug_str:0000000000000e26 .LASF165
C:\Users\Jesper\AppData\Local\Temp\cccuXFk1.s:5110   .debug_str:0000000000000547 .LASF166
C:\Users\Jesper\AppData\Local\Temp\cccuXFk1.s:5354   .debug_str:0000000000000a6b .LASF167
C:\Users\Jesper\AppData\Local\Temp\cccuXFk1.s:4904   .debug_str:0000000000000000 .LASF168
C:\Users\Jesper\AppData\Local\Temp\cccuXFk1.s:5250   .debug_str:0000000000000827 .LASF169
C:\Users\Jesper\AppData\Local\Temp\cccuXFk1.s:5246   .debug_str:0000000000000801 .LASF170
C:\Users\Jesper\AppData\Local\Temp\cccuXFk1.s:5334   .debug_str:00000000000009e4 .LASF171
C:\Users\Jesper\AppData\Local\Temp\cccuXFk1.s:5158   .debug_str:000000000000064b .LASF172
C:\Users\Jesper\AppData\Local\Temp\cccuXFk1.s:5440   .debug_str:0000000000000cea .LASF173
C:\Users\Jesper\AppData\Local\Temp\cccuXFk1.s:5374   .debug_str:0000000000000ae1 .LASF174
C:\Users\Jesper\AppData\Local\Temp\cccuXFk1.s:5380   .debug_str:0000000000000b09 .LASF175
C:\Users\Jesper\AppData\Local\Temp\cccuXFk1.s:5404   .debug_str:0000000000000bf9 .LASF176
C:\Users\Jesper\AppData\Local\Temp\cccuXFk1.s:5298   .debug_str:0000000000000920 .LASF177
C:\Users\Jesper\AppData\Local\Temp\cccuXFk1.s:5646   .debug_str:000000000000110e .LASF178
C:\Users\Jesper\AppData\Local\Temp\cccuXFk1.s:5276   .debug_str:00000000000008b1 .LASF179
C:\Users\Jesper\AppData\Local\Temp\cccuXFk1.s:5108   .debug_str:0000000000000539 .LASF180
C:\Users\Jesper\AppData\Local\Temp\cccuXFk1.s:5572   .debug_str:0000000000000f67 .LASF181
C:\Users\Jesper\AppData\Local\Temp\cccuXFk1.s:4908   .debug_str:0000000000000015 .LASF182
C:\Users\Jesper\AppData\Local\Temp\cccuXFk1.s:5264   .debug_str:0000000000000873 .LASF183
C:\Users\Jesper\AppData\Local\Temp\cccuXFk1.s:5378   .debug_str:0000000000000af9 .LASF184
C:\Users\Jesper\AppData\Local\Temp\cccuXFk1.s:5548   .debug_str:0000000000000efa .LASF185
GAS LISTING C:\Users\Jesper\AppData\Local\Temp\cccuXFk1.s 			page 9


C:\Users\Jesper\AppData\Local\Temp\cccuXFk1.s:5084   .debug_str:0000000000000497 .LASF186
C:\Users\Jesper\AppData\Local\Temp\cccuXFk1.s:5526   .debug_str:0000000000000ea3 .LASF187
C:\Users\Jesper\AppData\Local\Temp\cccuXFk1.s:4912   .debug_str:0000000000000035 .LASF188
C:\Users\Jesper\AppData\Local\Temp\cccuXFk1.s:5612   .debug_str:000000000000103d .LASF189
C:\Users\Jesper\AppData\Local\Temp\cccuXFk1.s:4918   .debug_str:0000000000000064 .LASF190
C:\Users\Jesper\AppData\Local\Temp\cccuXFk1.s:5340   .debug_str:0000000000000a07 .LASF191
C:\Users\Jesper\AppData\Local\Temp\cccuXFk1.s:5058   .debug_str:00000000000003ea .LASF192
C:\Users\Jesper\AppData\Local\Temp\cccuXFk1.s:5240   .debug_str:00000000000007de .LASF193
C:\Users\Jesper\AppData\Local\Temp\cccuXFk1.s:5676   .debug_str:0000000000001187 .LASF194
C:\Users\Jesper\AppData\Local\Temp\cccuXFk1.s:5282   .debug_str:00000000000008d6 .LASF195
C:\Users\Jesper\AppData\Local\Temp\cccuXFk1.s:5576   .debug_str:0000000000000f85 .LASF196
C:\Users\Jesper\AppData\Local\Temp\cccuXFk1.s:5068   .debug_str:000000000000043d .LASF197
C:\Users\Jesper\AppData\Local\Temp\cccuXFk1.s:4910   .debug_str:0000000000000027 .LASF198
C:\Users\Jesper\AppData\Local\Temp\cccuXFk1.s:5388   .debug_str:0000000000000ba8 .LASF199
C:\Users\Jesper\AppData\Local\Temp\cccuXFk1.s:5584   .debug_str:0000000000000fab .LASF200
C:\Users\Jesper\AppData\Local\Temp\cccuXFk1.s:5600   .debug_str:0000000000000ff6 .LASF201
C:\Users\Jesper\AppData\Local\Temp\cccuXFk1.s:5428   .debug_str:0000000000000c99 .LASF202
C:\Users\Jesper\AppData\Local\Temp\cccuXFk1.s:5464   .debug_str:0000000000000d5a .LASF203
C:\Users\Jesper\AppData\Local\Temp\cccuXFk1.s:5520   .debug_str:0000000000000e80 .LASF204
C:\Users\Jesper\AppData\Local\Temp\cccuXFk1.s:4964   .debug_str:0000000000000170 .LASF205
C:\Users\Jesper\AppData\Local\Temp\cccuXFk1.s:5568   .debug_str:0000000000000f54 .LASF206
C:\Users\Jesper\AppData\Local\Temp\cccuXFk1.s:5038   .debug_str:0000000000000387 .LASF207
C:\Users\Jesper\AppData\Local\Temp\cccuXFk1.s:5444   .debug_str:0000000000000cff .LASF208
C:\Users\Jesper\AppData\Local\Temp\cccuXFk1.s:4924   .debug_str:0000000000000088 .LASF209
C:\Users\Jesper\AppData\Local\Temp\cccuXFk1.s:5326   .debug_str:00000000000009ad .LASF210
C:\Users\Jesper\AppData\Local\Temp\cccuXFk1.s:5570   .debug_str:0000000000000f5d .LASF211
C:\Users\Jesper\AppData\Local\Temp\cccuXFk1.s:5636   .debug_str:00000000000010d8 .LASF212
C:\Users\Jesper\AppData\Local\Temp\cccuXFk1.s:5024   .debug_str:000000000000033e .LASF213
C:\Users\Jesper\AppData\Local\Temp\cccuXFk1.s:5118   .debug_str:0000000000000579 .LASF214
C:\Users\Jesper\AppData\Local\Temp\cccuXFk1.s:5338   .debug_str:00000000000009fa .LASF215
C:\Users\Jesper\AppData\Local\Temp\cccuXFk1.s:5414   .debug_str:0000000000000c2b .LASF216
C:\Users\Jesper\AppData\Local\Temp\cccuXFk1.s:5300   .debug_str:000000000000092d .LASF217
C:\Users\Jesper\AppData\Local\Temp\cccuXFk1.s:4906   .debug_str:0000000000000009 .LASF218
C:\Users\Jesper\AppData\Local\Temp\cccuXFk1.s:5566   .debug_str:0000000000000f4c .LASF219
C:\Users\Jesper\AppData\Local\Temp\cccuXFk1.s:4930   .debug_str:00000000000000a1 .LASF220
C:\Users\Jesper\AppData\Local\Temp\cccuXFk1.s:5468   .debug_str:0000000000000d72 .LASF221
C:\Users\Jesper\AppData\Local\Temp\cccuXFk1.s:5152   .debug_str:0000000000000629 .LASF222
C:\Users\Jesper\AppData\Local\Temp\cccuXFk1.s:5260   .debug_str:0000000000000860 .LASF223
C:\Users\Jesper\AppData\Local\Temp\cccuXFk1.s:5004   .debug_str:000000000000025a .LASF224
C:\Users\Jesper\AppData\Local\Temp\cccuXFk1.s:5376   .debug_str:0000000000000af0 .LASF225
C:\Users\Jesper\AppData\Local\Temp\cccuXFk1.s:5262   .debug_str:0000000000000868 .LASF226
C:\Users\Jesper\AppData\Local\Temp\cccuXFk1.s:5138   .debug_str:00000000000005d3 .LASF227
C:\Users\Jesper\AppData\Local\Temp\cccuXFk1.s:4996   .debug_str:000000000000023c .LASF228
C:\Users\Jesper\AppData\Local\Temp\cccuXFk1.s:5202   .debug_str:000000000000071f .LASF229
C:\Users\Jesper\AppData\Local\Temp\cccuXFk1.s:5718   .debug_str:0000000000001286 .LASF230
C:\Users\Jesper\AppData\Local\Temp\cccuXFk1.s:5682   .debug_str:00000000000011ae .LASF231
C:\Users\Jesper\AppData\Local\Temp\cccuXFk1.s:5538   .debug_str:0000000000000eda .LASF232
C:\Users\Jesper\AppData\Local\Temp\cccuXFk1.s:5530   .debug_str:0000000000000eb3 .LASF233
C:\Users\Jesper\AppData\Local\Temp\cccuXFk1.s:5480   .debug_str:0000000000000dc9 .LASF234
C:\Users\Jesper\AppData\Local\Temp\cccuXFk1.s:5080   .debug_str:0000000000000485 .LASF235
C:\Users\Jesper\AppData\Local\Temp\cccuXFk1.s:5550   .debug_str:0000000000000f0d .LASF236
C:\Users\Jesper\AppData\Local\Temp\cccuXFk1.s:5180   .debug_str:00000000000006c4 .LASF237
C:\Users\Jesper\AppData\Local\Temp\cccuXFk1.s:5030   .debug_str:0000000000000364 .LASF238
C:\Users\Jesper\AppData\Local\Temp\cccuXFk1.s:5020   .debug_str:0000000000000326 .LASF239
C:\Users\Jesper\AppData\Local\Temp\cccuXFk1.s:5136   .debug_str:00000000000005ca .LASF240
C:\Users\Jesper\AppData\Local\Temp\cccuXFk1.s:5156   .debug_str:0000000000000638 .LASF241
C:\Users\Jesper\AppData\Local\Temp\cccuXFk1.s:5390   .debug_str:0000000000000bb0 .LASF242
GAS LISTING C:\Users\Jesper\AppData\Local\Temp\cccuXFk1.s 			page 10


C:\Users\Jesper\AppData\Local\Temp\cccuXFk1.s:5522   .debug_str:0000000000000e89 .LASF243
C:\Users\Jesper\AppData\Local\Temp\cccuXFk1.s:5206   .debug_str:0000000000000734 .LASF244
C:\Users\Jesper\AppData\Local\Temp\cccuXFk1.s:4998   .debug_str:0000000000000245 .LASF245
C:\Users\Jesper\AppData\Local\Temp\cccuXFk1.s:5364   .debug_str:0000000000000aa7 .LASF246
C:\Users\Jesper\AppData\Local\Temp\cccuXFk1.s:5372   .debug_str:0000000000000ad6 .LASF247
C:\Users\Jesper\AppData\Local\Temp\cccuXFk1.s:5476   .debug_str:0000000000000db4 .LASF248
C:\Users\Jesper\AppData\Local\Temp\cccuXFk1.s:5506   .debug_str:0000000000000e3d .LASF249
C:\Users\Jesper\AppData\Local\Temp\cccuXFk1.s:5516   .debug_str:0000000000000e6e .LASF250
C:\Users\Jesper\AppData\Local\Temp\cccuXFk1.s:5528   .debug_str:0000000000000eae .LASF251
C:\Users\Jesper\AppData\Local\Temp\cccuXFk1.s:5360   .debug_str:0000000000000a85 .LASF252
C:\Users\Jesper\AppData\Local\Temp\cccuXFk1.s:5392   .debug_str:0000000000000bc4 .LASF253
C:\Users\Jesper\AppData\Local\Temp\cccuXFk1.s:5588   .debug_str:0000000000000fbf .LASF254
C:\Users\Jesper\AppData\Local\Temp\cccuXFk1.s:5022   .debug_str:000000000000032e .LASF255
C:\Users\Jesper\AppData\Local\Temp\cccuXFk1.s:5540   .debug_str:0000000000000edf .LASF256
C:\Users\Jesper\AppData\Local\Temp\cccuXFk1.s:5670   .debug_str:0000000000001173 .LASF257
C:\Users\Jesper\AppData\Local\Temp\cccuXFk1.s:5458   .debug_str:0000000000000d41 .LASF258
C:\Users\Jesper\AppData\Local\Temp\cccuXFk1.s:4916   .debug_str:000000000000005b .LASF259
C:\Users\Jesper\AppData\Local\Temp\cccuXFk1.s:5036   .debug_str:0000000000000381 .LASF260
C:\Users\Jesper\AppData\Local\Temp\cccuXFk1.s:5460   .debug_str:0000000000000d49 .LASF261
C:\Users\Jesper\AppData\Local\Temp\cccuXFk1.s:5420   .debug_str:0000000000000c50 .LASF262
C:\Users\Jesper\AppData\Local\Temp\cccuXFk1.s:4922   .debug_str:0000000000000080 .LASF263
C:\Users\Jesper\AppData\Local\Temp\cccuXFk1.s:5524   .debug_str:0000000000000e98 .LASF264
C:\Users\Jesper\AppData\Local\Temp\cccuXFk1.s:5632   .debug_str:00000000000010c7 .LASF265
C:\Users\Jesper\AppData\Local\Temp\cccuXFk1.s:5268   .debug_str:0000000000000888 .LASF266
C:\Users\Jesper\AppData\Local\Temp\cccuXFk1.s:5514   .debug_str:0000000000000e65 .LASF267
C:\Users\Jesper\AppData\Local\Temp\cccuXFk1.s:5284   .debug_str:00000000000008e1 .LASF268
C:\Users\Jesper\AppData\Local\Temp\cccuXFk1.s:5542   .debug_str:0000000000000ee6 .LASF269
C:\Users\Jesper\AppData\Local\Temp\cccuXFk1.s:5288   .debug_str:00000000000008f3 .LASF270
C:\Users\Jesper\AppData\Local\Temp\cccuXFk1.s:5358   .debug_str:0000000000000a7f .LASF271
C:\Users\Jesper\AppData\Local\Temp\cccuXFk1.s:5196   .debug_str:0000000000000709 .LASF272
C:\Users\Jesper\AppData\Local\Temp\cccuXFk1.s:4962   .debug_str:000000000000016b .LASF273
C:\Users\Jesper\AppData\Local\Temp\cccuXFk1.s:4968   .debug_str:0000000000000182 .LASF274
C:\Users\Jesper\AppData\Local\Temp\cccuXFk1.s:5712   .debug_str:0000000000001265 .LASF275
C:\Users\Jesper\AppData\Local\Temp\cccuXFk1.s:5680   .debug_str:00000000000011a4 .LASF276
C:\Users\Jesper\AppData\Local\Temp\cccuXFk1.s:5230   .debug_str:000000000000079d .LASF277
C:\Users\Jesper\AppData\Local\Temp\cccuXFk1.s:5076   .debug_str:0000000000000460 .LASF278
C:\Users\Jesper\AppData\Local\Temp\cccuXFk1.s:5592   .debug_str:0000000000000fd3 .LASF279
C:\Users\Jesper\AppData\Local\Temp\cccuXFk1.s:5432   .debug_str:0000000000000cb9 .LASF280
C:\Users\Jesper\AppData\Local\Temp\cccuXFk1.s:5438   .debug_str:0000000000000ce0 .LASF281
C:\Users\Jesper\AppData\Local\Temp\cccuXFk1.s:5702   .debug_str:000000000000122b .LASF282
C:\Users\Jesper\AppData\Local\Temp\cccuXFk1.s:5034   .debug_str:0000000000000373 .LASF283
C:\Users\Jesper\AppData\Local\Temp\cccuXFk1.s:5000   .debug_str:000000000000024c .LASF284
C:\Users\Jesper\AppData\Local\Temp\cccuXFk1.s:5484   .debug_str:0000000000000dda .LASF285
C:\Users\Jesper\AppData\Local\Temp\cccuXFk1.s:5586   .debug_str:0000000000000fb6 .LASF286
C:\Users\Jesper\AppData\Local\Temp\cccuXFk1.s:5616   .debug_str:0000000000001051 .LASF287
C:\Users\Jesper\AppData\Local\Temp\cccuXFk1.s:5412   .debug_str:0000000000000c23 .LASF288
C:\Users\Jesper\AppData\Local\Temp\cccuXFk1.s:5610   .debug_str:0000000000001038 .LASF289
C:\Users\Jesper\AppData\Local\Temp\cccuXFk1.s:5160   .debug_str:000000000000065c .LASF290
C:\Users\Jesper\AppData\Local\Temp\cccuXFk1.s:5614   .debug_str:000000000000104a .LASF291
C:\Users\Jesper\AppData\Local\Temp\cccuXFk1.s:5512   .debug_str:0000000000000e5f .LASF292
C:\Users\Jesper\AppData\Local\Temp\cccuXFk1.s:5056   .debug_str:00000000000003e4 .LASF293
C:\Users\Jesper\AppData\Local\Temp\cccuXFk1.s:5252   .debug_str:0000000000000835 .LASF294
C:\Users\Jesper\AppData\Local\Temp\cccuXFk1.s:5410   .debug_str:0000000000000c1c .LASF295
C:\Users\Jesper\AppData\Local\Temp\cccuXFk1.s:5032   .debug_str:000000000000036d .LASF296
C:\Users\Jesper\AppData\Local\Temp\cccuXFk1.s:5606   .debug_str:000000000000102a .LASF297
C:\Users\Jesper\AppData\Local\Temp\cccuXFk1.s:5192   .debug_str:00000000000006f9 .LASF298
C:\Users\Jesper\AppData\Local\Temp\cccuXFk1.s:4932   .debug_str:00000000000000a9 .LASF299
GAS LISTING C:\Users\Jesper\AppData\Local\Temp\cccuXFk1.s 			page 11


C:\Users\Jesper\AppData\Local\Temp\cccuXFk1.s:4940   .debug_str:00000000000000ea .LASF300
C:\Users\Jesper\AppData\Local\Temp\cccuXFk1.s:5452   .debug_str:0000000000000d25 .LASF301
C:\Users\Jesper\AppData\Local\Temp\cccuXFk1.s:5162   .debug_str:0000000000000661 .LASF302
C:\Users\Jesper\AppData\Local\Temp\cccuXFk1.s:5396   .debug_str:0000000000000bd4 .LASF303
C:\Users\Jesper\AppData\Local\Temp\cccuXFk1.s:4966   .debug_str:000000000000017c .LASF304
C:\Users\Jesper\AppData\Local\Temp\cccuXFk1.s:5492   .debug_str:0000000000000dfb .LASF305
C:\Users\Jesper\AppData\Local\Temp\cccuXFk1.s:5456   .debug_str:0000000000000d39 .LASF306
C:\Users\Jesper\AppData\Local\Temp\cccuXFk1.s:5546   .debug_str:0000000000000ef4 .LASF307
C:\Users\Jesper\AppData\Local\Temp\cccuXFk1.s:5002   .debug_str:0000000000000254 .LASF308
C:\Users\Jesper\AppData\Local\Temp\cccuXFk1.s:5402   .debug_str:0000000000000bf0 .LASF309
C:\Users\Jesper\AppData\Local\Temp\cccuXFk1.s:5256   .debug_str:0000000000000848 .LASF310
C:\Users\Jesper\AppData\Local\Temp\cccuXFk1.s:5010   .debug_str:00000000000002f1 .LASF311
C:\Users\Jesper\AppData\Local\Temp\cccuXFk1.s:5274   .debug_str:00000000000008aa .LASF312
C:\Users\Jesper\AppData\Local\Temp\cccuXFk1.s:5172   .debug_str:0000000000000697 .LASF313
C:\Users\Jesper\AppData\Local\Temp\cccuXFk1.s:5490   .debug_str:0000000000000df3 .LASF314
C:\Users\Jesper\AppData\Local\Temp\cccuXFk1.s:5398   .debug_str:0000000000000bda .LASF315
C:\Users\Jesper\AppData\Local\Temp\cccuXFk1.s:5608   .debug_str:0000000000001033 .LASF316
C:\Users\Jesper\AppData\Local\Temp\cccuXFk1.s:5304   .debug_str:0000000000000940 .LASF317
C:\Users\Jesper\AppData\Local\Temp\cccuXFk1.s:5704   .debug_str:0000000000001236 .LASF318
C:\Users\Jesper\AppData\Local\Temp\cccuXFk1.s:5630   .debug_str:00000000000010bf .LASF319
C:\Users\Jesper\AppData\Local\Temp\cccuXFk1.s:5254   .debug_str:000000000000083d .LASF320
C:\Users\Jesper\AppData\Local\Temp\cccuXFk1.s:5294   .debug_str:000000000000090d .LASF321
C:\Users\Jesper\AppData\Local\Temp\cccuXFk1.s:5644   .debug_str:0000000000001106 .LASF322
C:\Users\Jesper\AppData\Local\Temp\cccuXFk1.s:5054   .debug_str:00000000000003da .LASF323
C:\Users\Jesper\AppData\Local\Temp\cccuXFk1.s:5242   .debug_str:00000000000007ea .LASF324
C:\Users\Jesper\AppData\Local\Temp\cccuXFk1.s:5350   .debug_str:0000000000000a5b .LASF325
C:\Users\Jesper\AppData\Local\Temp\cccuXFk1.s:4948   .debug_str:000000000000011a .LASF326
C:\Users\Jesper\AppData\Local\Temp\cccuXFk1.s:5228   .debug_str:0000000000000795 .LASF327
C:\Users\Jesper\AppData\Local\Temp\cccuXFk1.s:5394   .debug_str:0000000000000bcf .LASF328
C:\Users\Jesper\AppData\Local\Temp\cccuXFk1.s:5296   .debug_str:0000000000000917 .LASF329
C:\Users\Jesper\AppData\Local\Temp\cccuXFk1.s:5204   .debug_str:000000000000072a .LASF330
C:\Users\Jesper\AppData\Local\Temp\cccuXFk1.s:5330   .debug_str:00000000000009c4 .LASF331
C:\Users\Jesper\AppData\Local\Temp\cccuXFk1.s:4928   .debug_str:000000000000009c .LASF332
C:\Users\Jesper\AppData\Local\Temp\cccuXFk1.s:5154   .debug_str:0000000000000633 .LASF333
C:\Users\Jesper\AppData\Local\Temp\cccuXFk1.s:5518   .debug_str:0000000000000e79 .LASF334
C:\Users\Jesper\AppData\Local\Temp\cccuXFk1.s:5356   .debug_str:0000000000000a79 .LASF335
C:\Users\Jesper\AppData\Local\Temp\cccuXFk1.s:5324   .debug_str:00000000000009a6 .LASF336
C:\Users\Jesper\AppData\Local\Temp\cccuXFk1.s:5352   .debug_str:0000000000000a65 .LASF337
C:\Users\Jesper\AppData\Local\Temp\cccuXFk1.s:5488   .debug_str:0000000000000deb .LASF338
C:\Users\Jesper\AppData\Local\Temp\cccuXFk1.s:5448   .debug_str:0000000000000d14 .LASF339
C:\Users\Jesper\AppData\Local\Temp\cccuXFk1.s:5008   .debug_str:00000000000002eb .LASF340
C:\Users\Jesper\AppData\Local\Temp\cccuXFk1.s:5672   .debug_str:000000000000117a .LASF341
C:\Users\Jesper\AppData\Local\Temp\cccuXFk1.s:5094   .debug_str:00000000000004cc .LASF342
C:\Users\Jesper\AppData\Local\Temp\cccuXFk1.s:5504   .debug_str:0000000000000e30 .LASF343
C:\Users\Jesper\AppData\Local\Temp\cccuXFk1.s:4946   .debug_str:000000000000010d .LASF344
C:\Users\Jesper\AppData\Local\Temp\cccuXFk1.s:5066   .debug_str:000000000000042e .LASF345
C:\Users\Jesper\AppData\Local\Temp\cccuXFk1.s:5342   .debug_str:0000000000000a16 .LASF346
C:\Users\Jesper\AppData\Local\Temp\cccuXFk1.s:5406   .debug_str:0000000000000c08 .LASF347
C:\Users\Jesper\AppData\Local\Temp\cccuXFk1.s:5532   .debug_str:0000000000000ec3 .LASF348
C:\Users\Jesper\AppData\Local\Temp\cccuXFk1.s:5574   .debug_str:0000000000000f78 .LASF349
C:\Users\Jesper\AppData\Local\Temp\cccuXFk1.s:5466   .debug_str:0000000000000d64 .LASF350
C:\Users\Jesper\AppData\Local\Temp\cccuXFk1.s:5400   .debug_str:0000000000000be2 .LASF351
C:\Users\Jesper\AppData\Local\Temp\cccuXFk1.s:5462   .debug_str:0000000000000d50 .LASF352
C:\Users\Jesper\AppData\Local\Temp\cccuXFk1.s:5278   .debug_str:00000000000008c1 .LASF353
C:\Users\Jesper\AppData\Local\Temp\cccuXFk1.s:5714   .debug_str:000000000000126e .LASF354
C:\Users\Jesper\AppData\Local\Temp\cccuXFk1.s:5046   .debug_str:00000000000003b1 .LASF355
C:\Users\Jesper\AppData\Local\Temp\cccuXFk1.s:5508   .debug_str:0000000000000e47 .LASF356
GAS LISTING C:\Users\Jesper\AppData\Local\Temp\cccuXFk1.s 			page 12


C:\Users\Jesper\AppData\Local\Temp\cccuXFk1.s:5688   .debug_str:00000000000011d0 .LASF357
C:\Users\Jesper\AppData\Local\Temp\cccuXFk1.s:5382   .debug_str:0000000000000b1d .LASF358
C:\Users\Jesper\AppData\Local\Temp\cccuXFk1.s:5366   .debug_str:0000000000000ab0 .LASF359
C:\Users\Jesper\AppData\Local\Temp\cccuXFk1.s:5164   .debug_str:0000000000000668 .LASF360
C:\Users\Jesper\AppData\Local\Temp\cccuXFk1.s:5622   .debug_str:000000000000106f .LASF361
C:\Users\Jesper\AppData\Local\Temp\cccuXFk1.s:5336   .debug_str:00000000000009f1 .LASF362
C:\Users\Jesper\AppData\Local\Temp\cccuXFk1.s:4960   .debug_str:0000000000000163 .LASF363
C:\Users\Jesper\AppData\Local\Temp\cccuXFk1.s:4920   .debug_str:0000000000000075 .LASF407
C:\Users\Jesper\AppData\Local\Temp\cccuXFk1.s:5050   .debug_str:00000000000003c8 .LASF364
C:\Users\Jesper\AppData\Local\Temp\cccuXFk1.s:5424   .debug_str:0000000000000c7b .LASF365
C:\Users\Jesper\AppData\Local\Temp\cccuXFk1.s:5134   .debug_str:00000000000005b7 .LASF366
C:\Users\Jesper\AppData\Local\Temp\cccuXFk1.s:5706   .debug_str:000000000000124f .LASF367
C:\Users\Jesper\AppData\Local\Temp\cccuXFk1.s:5624   .debug_str:0000000000001076 .LASF368
C:\Users\Jesper\AppData\Local\Temp\cccuXFk1.s:5104   .debug_str:000000000000051a .LASF369
C:\Users\Jesper\AppData\Local\Temp\cccuXFk1.s:5128   .debug_str:000000000000059a .LASF370
C:\Users\Jesper\AppData\Local\Temp\cccuXFk1.s:4986   .debug_str:00000000000001de .LASF371
C:\Users\Jesper\AppData\Local\Temp\cccuXFk1.s:5422   .debug_str:0000000000000c58 .LASF372
C:\Users\Jesper\AppData\Local\Temp\cccuXFk1.s:5628   .debug_str:00000000000010ae .LASF373
C:\Users\Jesper\AppData\Local\Temp\cccuXFk1.s:5170   .debug_str:0000000000000686 .LASF374
C:\Users\Jesper\AppData\Local\Temp\cccuXFk1.s:5102   .debug_str:00000000000004f5 .LASF375
C:\Users\Jesper\AppData\Local\Temp\cccuXFk1.s:5064   .debug_str:0000000000000417 .LASF376
C:\Users\Jesper\AppData\Local\Temp\cccuXFk1.s:5602   .debug_str:0000000000001000 .LASF377
C:\Users\Jesper\AppData\Local\Temp\cccuXFk1.s:5078   .debug_str:0000000000000469 .LASF378
C:\Users\Jesper\AppData\Local\Temp\cccuXFk1.s:5232   .debug_str:00000000000007a7 .LASF379
C:\Users\Jesper\AppData\Local\Temp\cccuXFk1.s:5012   .debug_str:00000000000002f8 .LASF380
C:\Users\Jesper\AppData\Local\Temp\cccuXFk1.s:4956   .debug_str:000000000000013f .LASF381
C:\Users\Jesper\AppData\Local\Temp\cccuXFk1.s:5150   .debug_str:000000000000060d .LASF382
C:\Users\Jesper\AppData\Local\Temp\cccuXFk1.s:5362   .debug_str:0000000000000a8d .LASF383
C:\Users\Jesper\AppData\Local\Temp\cccuXFk1.s:4914   .debug_str:0000000000000042 .LASF384
C:\Users\Jesper\AppData\Local\Temp\cccuXFk1.s:4934   .debug_str:00000000000000af .LASF385
C:\Users\Jesper\AppData\Local\Temp\cccuXFk1.s:5618   .debug_str:0000000000001059 .LASF386
C:\Users\Jesper\AppData\Local\Temp\cccuXFk1.s:5626   .debug_str:000000000000109c .LASF387
C:\Users\Jesper\AppData\Local\Temp\cccuXFk1.s:5062   .debug_str:00000000000003fe .LASF388
C:\Users\Jesper\AppData\Local\Temp\cccuXFk1.s:4942   .debug_str:00000000000000f1 .LASF389
C:\Users\Jesper\AppData\Local\Temp\cccuXFk1.s:5272   .debug_str:00000000000008a0 .LASF390
C:\Users\Jesper\AppData\Local\Temp\cccuXFk1.s:5346   .debug_str:0000000000000a2d .LASF391
C:\Users\Jesper\AppData\Local\Temp\cccuXFk1.s:4988   .debug_str:000000000000020c .LASF392
C:\Users\Jesper\AppData\Local\Temp\cccuXFk1.s:5236   .debug_str:00000000000007c8 .LASF393
C:\Users\Jesper\AppData\Local\Temp\cccuXFk1.s:5328   .debug_str:00000000000009b8 .LASF394
C:\Users\Jesper\AppData\Local\Temp\cccuXFk1.s:5106   .debug_str:0000000000000529 .LASF395
C:\Users\Jesper\AppData\Local\Temp\cccuXFk1.s:5604   .debug_str:0000000000001014 .LASF396
C:\Users\Jesper\AppData\Local\Temp\cccuXFk1.s:31     .text.USBFS_WKUP_IRQHandler:0000000000000000 .LFB7
C:\Users\Jesper\AppData\Local\Temp\cccuXFk1.s:84     .text.USBFS_WKUP_IRQHandler:0000000000000056 .LFE7
C:\Users\Jesper\AppData\Local\Temp\cccuXFk1.s:4861   .debug_loc:0000000000000000 .LLST0
C:\Users\Jesper\AppData\Local\Temp\cccuXFk1.s:53     .text.USBFS_WKUP_IRQHandler:000000000000001c .LVL1
C:\Users\Jesper\AppData\Local\Temp\cccuXFk1.s:58     .text.USBFS_WKUP_IRQHandler:000000000000002c .LVL2
C:\Users\Jesper\AppData\Local\Temp\cccuXFk1.s:62     .text.USBFS_WKUP_IRQHandler:0000000000000038 .LVL3
C:\Users\Jesper\AppData\Local\Temp\cccuXFk1.s:66     .text.USBFS_WKUP_IRQHandler:0000000000000044 .LVL4
C:\Users\Jesper\AppData\Local\Temp\cccuXFk1.s:82     .text.USBFS_WKUP_IRQHandler:0000000000000056 .LVL5
C:\Users\Jesper\AppData\Local\Temp\cccuXFk1.s:5430   .debug_str:0000000000000ca8 .LASF397
C:\Users\Jesper\AppData\Local\Temp\cccuXFk1.s:14     .text.USBFS_IRQHandler:0000000000000000 .LFB6
C:\Users\Jesper\AppData\Local\Temp\cccuXFk1.s:24     .text.USBFS_IRQHandler:0000000000000010 .LFE6
C:\Users\Jesper\AppData\Local\Temp\cccuXFk1.s:22     .text.USBFS_IRQHandler:0000000000000010 .LVL0
C:\Users\Jesper\AppData\Local\Temp\cccuXFk1.s:5332   .debug_str:00000000000009cc .LASF398
C:\Users\Jesper\AppData\Local\Temp\cccuXFk1.s:5648   .debug_str:0000000000001118 .LASF399
C:\Users\Jesper\AppData\Local\Temp\cccuXFk1.s:5692   .debug_str:00000000000011e7 .LASF400
C:\Users\Jesper\AppData\Local\Temp\cccuXFk1.s:5434   .debug_str:0000000000000cc3 .LASF401
GAS LISTING C:\Users\Jesper\AppData\Local\Temp\cccuXFk1.s 			page 13


C:\Users\Jesper\AppData\Local\Temp\cccuXFk1.s:5470   .debug_str:0000000000000d7b .LASF402
C:\Users\Jesper\AppData\Local\Temp\cccuXFk1.s:5072   .debug_str:000000000000044f .LASF403
C:\Users\Jesper\AppData\Local\Temp\cccuXFk1.s:37     .text.USBFS_WKUP_IRQHandler:0000000000000002 .LCFI0
C:\Users\Jesper\AppData\Local\Temp\cccuXFk1.s:78     .text.USBFS_WKUP_IRQHandler:000000000000004e .LCFI1
C:\Users\Jesper\AppData\Local\Temp\cccuXFk1.s:106    .debug_info:0000000000000000 .Ldebug_info0

UNDEFINED SYMBOLS
USB_OTG_dev
usbd_isr
set_usb_clock_96m_hxtal
usbfs_prescaler
rcu_usb_clock_config
rcu_periph_clock_enable
usb_clock_active
exti_interrupt_flag_clear
