GAS LISTING C:\Users\Jesper\AppData\Local\Temp\cccuXFk1.s 			page 1


   1              		.file	"gd32vf103_usb_it.c"
   2              		.option nopic
   3              		.attribute arch, "rv32i2p0_m2p0_a2p0_c2p0"
   4              		.attribute unaligned_access, 0
   5              		.attribute stack_align, 16
   6              		.text
   7              	.Ltext0:
   8              		.cfi_sections	.debug_frame
   9              		.section	.text.USBFS_IRQHandler,"ax",@progbits
  10              		.align	1
  11              		.globl	USBFS_IRQHandler
  13              	USBFS_IRQHandler:
  14              	.LFB6:
  15              		.file 1 "lib/usbcdc/src/gd32vf103_usb_it.c"
   1:lib/usbcdc/src/gd32vf103_usb_it.c **** /*!
   2:lib/usbcdc/src/gd32vf103_usb_it.c ****     \file  gd32vf103_it.c
   3:lib/usbcdc/src/gd32vf103_usb_it.c ****     \brief main interrupt service routines
   4:lib/usbcdc/src/gd32vf103_usb_it.c **** 
   5:lib/usbcdc/src/gd32vf103_usb_it.c ****     \version 2019-6-5, V1.0.0, demo for GD32VF103
   6:lib/usbcdc/src/gd32vf103_usb_it.c **** */
   7:lib/usbcdc/src/gd32vf103_usb_it.c **** 
   8:lib/usbcdc/src/gd32vf103_usb_it.c **** /*
   9:lib/usbcdc/src/gd32vf103_usb_it.c ****     Copyright (c) 2019, GigaDevice Semiconductor Inc.
  10:lib/usbcdc/src/gd32vf103_usb_it.c **** 
  11:lib/usbcdc/src/gd32vf103_usb_it.c ****     Redistribution and use in source and binary forms, with or without modification, 
  12:lib/usbcdc/src/gd32vf103_usb_it.c **** are permitted provided that the following conditions are met:
  13:lib/usbcdc/src/gd32vf103_usb_it.c **** 
  14:lib/usbcdc/src/gd32vf103_usb_it.c ****     1. Redistributions of source code must retain the above copyright notice, this 
  15:lib/usbcdc/src/gd32vf103_usb_it.c ****        list of conditions and the following disclaimer.
  16:lib/usbcdc/src/gd32vf103_usb_it.c ****     2. Redistributions in binary form must reproduce the above copyright notice, 
  17:lib/usbcdc/src/gd32vf103_usb_it.c ****        this list of conditions and the following disclaimer in the documentation 
  18:lib/usbcdc/src/gd32vf103_usb_it.c ****        and/or other materials provided with the distribution.
  19:lib/usbcdc/src/gd32vf103_usb_it.c ****     3. Neither the name of the copyright holder nor the names of its contributors 
  20:lib/usbcdc/src/gd32vf103_usb_it.c ****        may be used to endorse or promote products derived from this software without 
  21:lib/usbcdc/src/gd32vf103_usb_it.c ****        specific prior written permission.
  22:lib/usbcdc/src/gd32vf103_usb_it.c **** 
  23:lib/usbcdc/src/gd32vf103_usb_it.c ****     THIS SOFTWARE IS PROVIDED BY THE COPYRIGHT HOLDERS AND CONTRIBUTORS "AS IS" 
  24:lib/usbcdc/src/gd32vf103_usb_it.c **** AND ANY EXPRESS OR IMPLIED WARRANTIES, INCLUDING, BUT NOT LIMITED TO, THE IMPLIED 
  25:lib/usbcdc/src/gd32vf103_usb_it.c **** WARRANTIES OF MERCHANTABILITY AND FITNESS FOR A PARTICULAR PURPOSE ARE DISCLAIMED. 
  26:lib/usbcdc/src/gd32vf103_usb_it.c **** IN NO EVENT SHALL THE COPYRIGHT HOLDER OR CONTRIBUTORS BE LIABLE FOR ANY DIRECT, 
  27:lib/usbcdc/src/gd32vf103_usb_it.c **** INDIRECT, INCIDENTAL, SPECIAL, EXEMPLARY, OR CONSEQUENTIAL DAMAGES (INCLUDING, BUT 
  28:lib/usbcdc/src/gd32vf103_usb_it.c **** NOT LIMITED TO, PROCUREMENT OF SUBSTITUTE GOODS OR SERVICES; LOSS OF USE, DATA, OR 
  29:lib/usbcdc/src/gd32vf103_usb_it.c **** PROFITS; OR BUSINESS INTERRUPTION) HOWEVER CAUSED AND ON ANY THEORY OF LIABILITY, 
  30:lib/usbcdc/src/gd32vf103_usb_it.c **** WHETHER IN CONTRACT, STRICT LIABILITY, OR TORT (INCLUDING NEGLIGENCE OR OTHERWISE) 
  31:lib/usbcdc/src/gd32vf103_usb_it.c **** ARISING IN ANY WAY OUT OF THE USE OF THIS SOFTWARE, EVEN IF ADVISED OF THE POSSIBILITY 
  32:lib/usbcdc/src/gd32vf103_usb_it.c **** OF SUCH DAMAGE.
  33:lib/usbcdc/src/gd32vf103_usb_it.c **** */
  34:lib/usbcdc/src/gd32vf103_usb_it.c **** 
  35:lib/usbcdc/src/gd32vf103_usb_it.c **** #include "gd32vf103.h"
  36:lib/usbcdc/src/gd32vf103_usb_it.c **** #include "drv_usbd_int.h"
  37:lib/usbcdc/src/gd32vf103_usb_it.c **** #include "drv_usb_hw.h"
  38:lib/usbcdc/src/gd32vf103_usb_it.c **** #include "gd32vf103_usb_it.h"
  39:lib/usbcdc/src/gd32vf103_usb_it.c **** #include "usb_serial_if.h"
  40:lib/usbcdc/src/gd32vf103_usb_it.c **** 
  41:lib/usbcdc/src/gd32vf103_usb_it.c **** #define DEBUG_SP() asm volatile("csrrw sp, mscratch, sp")
  42:lib/usbcdc/src/gd32vf103_usb_it.c **** //#define DEBUG_PIN_ON() gpio_bit_set(GPIOB, GPIO_PIN_0)
  43:lib/usbcdc/src/gd32vf103_usb_it.c **** //#define DEBUG_PIN_OFF() gpio_bit_reset(GPIOB, GPIO_PIN_0)
GAS LISTING C:\Users\Jesper\AppData\Local\Temp\cccuXFk1.s 			page 2


  44:lib/usbcdc/src/gd32vf103_usb_it.c **** 
  45:lib/usbcdc/src/gd32vf103_usb_it.c **** extern usb_core_driver USB_OTG_dev;
  46:lib/usbcdc/src/gd32vf103_usb_it.c **** extern uint32_t usbfs_prescaler;
  47:lib/usbcdc/src/gd32vf103_usb_it.c **** 
  48:lib/usbcdc/src/gd32vf103_usb_it.c **** extern void usb_timer_irq(void);
  49:lib/usbcdc/src/gd32vf103_usb_it.c **** 
  50:lib/usbcdc/src/gd32vf103_usb_it.c **** /*!
  51:lib/usbcdc/src/gd32vf103_usb_it.c ****     \brief      this function handles USBD interrupt//
  52:lib/usbcdc/src/gd32vf103_usb_it.c ****     \param[in]  none
  53:lib/usbcdc/src/gd32vf103_usb_it.c ****     \param[out] none
  54:lib/usbcdc/src/gd32vf103_usb_it.c ****     \retval     none
  55:lib/usbcdc/src/gd32vf103_usb_it.c **** */
  56:lib/usbcdc/src/gd32vf103_usb_it.c **** void USBFS_IRQHandler (void)
  57:lib/usbcdc/src/gd32vf103_usb_it.c **** { 
  16              		.loc 1 57 1
  17              		.cfi_startproc
  58:lib/usbcdc/src/gd32vf103_usb_it.c ****     //DEBUG_PIN_ON();
  59:lib/usbcdc/src/gd32vf103_usb_it.c ****     usbd_isr (&USB_OTG_dev);
  18              		.loc 1 59 5
  19 0000 37050000 		lui	a0,%hi(USB_OTG_dev)
  20 0004 13050500 		addi	a0,a0,%lo(USB_OTG_dev)
  21 0008 17030000 		tail	usbd_isr
  21      67000300 
  22              	.LVL0:
  23              		.cfi_endproc
  24              	.LFE6:
  26              		.section	.text.USBFS_WKUP_IRQHandler,"ax",@progbits
  27              		.align	1
  28              		.globl	USBFS_WKUP_IRQHandler
  30              	USBFS_WKUP_IRQHandler:
  31              	.LFB7:
  60:lib/usbcdc/src/gd32vf103_usb_it.c **** }
  61:lib/usbcdc/src/gd32vf103_usb_it.c **** 
  62:lib/usbcdc/src/gd32vf103_usb_it.c **** 
  63:lib/usbcdc/src/gd32vf103_usb_it.c **** 
  64:lib/usbcdc/src/gd32vf103_usb_it.c **** /*!
  65:lib/usbcdc/src/gd32vf103_usb_it.c ****     \brief      this function handles USBD wakeup interrupt request.
  66:lib/usbcdc/src/gd32vf103_usb_it.c ****     \param[in]  none
  67:lib/usbcdc/src/gd32vf103_usb_it.c ****     \param[out] none
  68:lib/usbcdc/src/gd32vf103_usb_it.c ****     \retval     none
  69:lib/usbcdc/src/gd32vf103_usb_it.c **** */
  70:lib/usbcdc/src/gd32vf103_usb_it.c **** void USBFS_WKUP_IRQHandler(void)
  71:lib/usbcdc/src/gd32vf103_usb_it.c **** {
  32              		.loc 1 71 1
  33              		.cfi_startproc
  72:lib/usbcdc/src/gd32vf103_usb_it.c ****     //DEBUG_PIN_ON();
  73:lib/usbcdc/src/gd32vf103_usb_it.c ****     if (USB_OTG_dev.bp.low_power) {
  34              		.loc 1 73 5
  71:lib/usbcdc/src/gd32vf103_usb_it.c ****     //DEBUG_PIN_ON();
  35              		.loc 1 71 1 is_stmt 0
  36 0000 4111     		addi	sp,sp,-16
  37              	.LCFI0:
  38              		.cfi_def_cfa_offset 16
  39 0002 22C4     		sw	s0,8(sp)
  40              		.cfi_offset 8, -8
  41              		.loc 1 73 23
  42 0004 37040000 		lui	s0,%hi(USB_OTG_dev)
GAS LISTING C:\Users\Jesper\AppData\Local\Temp\cccuXFk1.s 			page 3


  71:lib/usbcdc/src/gd32vf103_usb_it.c ****     //DEBUG_PIN_ON();
  43              		.loc 1 71 1
  44 0008 06C6     		sw	ra,12(sp)
  45              		.cfi_offset 1, -4
  46              		.loc 1 73 23
  47 000a 93070400 		addi	a5,s0,%lo(USB_OTG_dev)
  48              		.loc 1 73 8
  49 000e 83C77700 		lbu	a5,7(a5)
  50 0012 8DCB     		beq	a5,zero,.L3
  74:lib/usbcdc/src/gd32vf103_usb_it.c ****         //SystemInit();
  75:lib/usbcdc/src/gd32vf103_usb_it.c ****         set_usb_clock_96m_hxtal();
  51              		.loc 1 75 9 is_stmt 1
  52 0014 97000000 		call	set_usb_clock_96m_hxtal
  52      E7800000 
  53              	.LVL1:
  76:lib/usbcdc/src/gd32vf103_usb_it.c ****         rcu_usb_clock_config(usbfs_prescaler);
  54              		.loc 1 76 9
  55 001c B7070000 		lui	a5,%hi(usbfs_prescaler)
  56 0020 03A50700 		lw	a0,%lo(usbfs_prescaler)(a5)
  57 0024 97000000 		call	rcu_usb_clock_config
  57      E7800000 
  58              	.LVL2:
  77:lib/usbcdc/src/gd32vf103_usb_it.c **** 
  78:lib/usbcdc/src/gd32vf103_usb_it.c ****         rcu_periph_clock_enable(RCU_USBFS);
  59              		.loc 1 78 9
  60 002c 1305C050 		li	a0,1292
  61 0030 97000000 		call	rcu_periph_clock_enable
  61      E7800000 
  62              	.LVL3:
  79:lib/usbcdc/src/gd32vf103_usb_it.c **** 
  80:lib/usbcdc/src/gd32vf103_usb_it.c ****         usb_clock_active(&USB_OTG_dev);
  63              		.loc 1 80 9
  64 0038 13050400 		addi	a0,s0,%lo(USB_OTG_dev)
  65 003c 97000000 		call	usb_clock_active
  65      E7800000 
  66              	.LVL4:
  67              	.L3:
  81:lib/usbcdc/src/gd32vf103_usb_it.c ****     }
  82:lib/usbcdc/src/gd32vf103_usb_it.c **** 
  83:lib/usbcdc/src/gd32vf103_usb_it.c ****     exti_interrupt_flag_clear(EXTI_18);
  68              		.loc 1 83 5
  84:lib/usbcdc/src/gd32vf103_usb_it.c **** }
  69              		.loc 1 84 1 is_stmt 0
  70 0044 2244     		lw	s0,8(sp)
  71              		.cfi_restore 8
  72 0046 B240     		lw	ra,12(sp)
  73              		.cfi_restore 1
  83:lib/usbcdc/src/gd32vf103_usb_it.c **** }
  74              		.loc 1 83 5
  75 0048 37050400 		li	a0,262144
  76              		.loc 1 84 1
  77 004c 4101     		addi	sp,sp,16
  78              	.LCFI1:
  79              		.cfi_def_cfa_offset 0
  83:lib/usbcdc/src/gd32vf103_usb_it.c **** }
  80              		.loc 1 83 5
  81 004e 17030000 		tail	exti_interrupt_flag_clear
GAS LISTING C:\Users\Jesper\AppData\Local\Temp\cccuXFk1.s 			page 4


  81      67000300 
  82              	.LVL5:
  83              		.cfi_endproc
  84              	.LFE7:
  86              		.text
  87              	.Letext0:
  88              		.file 2 "c:\\users\\jesper\\documents\\ml_sommarjobb\\toolchain-gd32v-v201-win\\toolchain-gd32v-v2
  89              		.file 3 "c:\\users\\jesper\\documents\\ml_sommarjobb\\toolchain-gd32v-v201-win\\toolchain-gd32v-v2
  90              		.file 4 "./../../firmware/GD32VF103_standard_peripheral/Include/gd32vf103_exti.h"
  91              		.file 5 "./../../firmware/GD32VF103_standard_peripheral/Include/gd32vf103_rcu.h"
  92              		.file 6 "lib/usbcdc/include/drv_usb_regs.h"
  93              		.file 7 "./../../firmware/GD32VF103_standard_peripheral/system_gd32vf103.h"
  94              		.file 8 "lib/usbcdc/include/usb_ch9_std.h"
  95              		.file 9 "lib/usbcdc/include/drv_usb_core.h"
  96              		.file 10 "lib/usbcdc/include/drv_usb_dev.h"
  97              		.file 11 "c:\\users\\jesper\\documents\\ml_sommarjobb\\toolchain-gd32v-v201-win\\toolchain-gd32v-v
  98              		.file 12 "c:\\users\\jesper\\documents\\ml_sommarjobb\\toolchain-gd32v-v201-win\\toolchain-gd32v-v
  99              		.file 13 "c:\\users\\jesper\\documents\\ml_sommarjobb\\toolchain-gd32v-v201-win\\toolchain-gd32v-v
 100              		.file 14 "c:\\users\\jesper\\documents\\ml_sommarjobb\\toolchain-gd32v-v201-win\\toolchain-gd32v-v
 101              		.file 15 "lib/usbcdc/include/cdc_acm_core.h"
 102              		.file 16 "c:\\users\\jesper\\documents\\ml_sommarjobb\\toolchain-gd32v-v201-win\\toolchain-gd32v-v
 103              		.file 17 "lib/usbcdc/include/usb_serial_if.h"
 104              		.file 18 "lib/usbcdc/include/drv_usbd_int.h"
GAS LISTING C:\Users\Jesper\AppData\Local\Temp\cccuXFk1.s 			page 5

